; Function Attrs: nounwind uwtable
define void @Cgt_ManCollectVisited_rec(ptr noundef %0, ptr noundef %1, ptr noundef %2) local_unnamed_addr #0 {
  %4 = getelementptr i8, ptr %1, i64 24
  %.val18 = load i64, ptr %4, align 8
  %5 = and i64 %.val18, 7
  %.not = icmp eq i64 %5, 2
  br i1 %.not, label %49, label %6

6:                                                ; preds = %3
  %7 = getelementptr i8, ptr %0, i64 312
  %.val = load i32, ptr %7, align 8, !tbaa !3
  %8 = getelementptr i8, ptr %1, i64 32
  %.val14 = load i32, ptr %8, align 8, !tbaa !21
  %.not19 = icmp eq i32 %.val14, %.val
  br i1 %.not19, label %49, label %9

9:                                                ; preds = %6
  store i32 %.val, ptr %8, align 8, !tbaa !21
  %10 = getelementptr i8, ptr %1, i64 8
  %.val16 = load ptr, ptr %10, align 8, !tbaa !22
  %11 = ptrtoint ptr %.val16 to i64
  %12 = and i64 %11, -2
  %13 = inttoptr i64 %12 to ptr
  tail call void @Cgt_ManCollectVisited_rec(ptr noundef nonnull %0, ptr noundef %13, ptr noundef %2)
  %14 = getelementptr i8, ptr %1, i64 16
  %.val17 = load ptr, ptr %14, align 8, !tbaa !23
  %15 = ptrtoint ptr %.val17 to i64
  %16 = and i64 %15, -2
  %17 = inttoptr i64 %16 to ptr
  tail call void @Cgt_ManCollectVisited_rec(ptr noundef nonnull %0, ptr noundef %17, ptr noundef %2)
  %18 = getelementptr inbounds nuw i8, ptr %2, i64 4
  %19 = load i32, ptr %18, align 4, !tbaa !28
  %20 = load i32, ptr %2, align 8, !tbaa !30
  %21 = icmp eq i32 %19, %20
  br i1 %21, label %22, label %.Vec_PtrGrow.exit11_crit_edge.i

.Vec_PtrGrow.exit11_crit_edge.i:                  ; preds = %9
  %.phi.trans.insert.i = getelementptr inbounds nuw i8, ptr %2, i64 8
  %.pre.i = load ptr, ptr %.phi.trans.insert.i, align 8, !tbaa !31
  br label %Vec_PtrPush.exit

22:                                               ; preds = %9
  %23 = icmp slt i32 %19, 16
  br i1 %23, label %24, label %32

24:                                               ; preds = %22
  %25 = getelementptr inbounds nuw i8, ptr %2, i64 8
  %26 = load ptr, ptr %25, align 8, !tbaa !31
  %.not9.i.i = icmp eq ptr %26, null
  br i1 %.not9.i.i, label %29, label %27

27:                                               ; preds = %24
  %28 = tail call dereferenceable_or_null(128) ptr @realloc(ptr noundef nonnull %26, i64 noundef 128) #11
  br label %Vec_PtrGrow.exit.i

29:                                               ; preds = %24
  %30 = tail call noalias dereferenceable_or_null(128) ptr @malloc(i64 noundef 128) #12
  br label %Vec_PtrGrow.exit.i

Vec_PtrGrow.exit.i:                               ; preds = %29, %27
  %31 = phi ptr [ %28, %27 ], [ %30, %29 ]
  store ptr %31, ptr %25, align 8, !tbaa !31
  store i32 16, ptr %2, align 8, !tbaa !30
  br label %Vec_PtrPush.exit

32:                                               ; preds = %22
  %33 = shl nuw nsw i32 %19, 1
  %34 = getelementptr inbounds nuw i8, ptr %2, i64 8
  %35 = load ptr, ptr %34, align 8, !tbaa !31
  %.not9.i10.i = icmp eq ptr %35, null
  %36 = zext nneg i32 %33 to i64
  %37 = shl nuw nsw i64 %36, 3
  br i1 %.not9.i10.i, label %40, label %38

38:                                               ; preds = %32
  %39 = tail call ptr @realloc(ptr noundef nonnull %35, i64 noundef %37) #11
  br label %42

40:                                               ; preds = %32
  %41 = tail call noalias ptr @malloc(i64 noundef %37) #12
  br label %42

42:                                               ; preds = %40, %38
  %43 = phi ptr [ %39, %38 ], [ %41, %40 ]
  store ptr %43, ptr %34, align 8, !tbaa !31
  store i32 %33, ptr %2, align 8, !tbaa !30
  br label %Vec_PtrPush.exit

Vec_PtrPush.exit:                                 ; preds = %.Vec_PtrGrow.exit11_crit_edge.i, %Vec_PtrGrow.exit.i, %42
  %44 = phi ptr [ %.pre.i, %.Vec_PtrGrow.exit11_crit_edge.i ], [ %43, %42 ], [ %31, %Vec_PtrGrow.exit.i ]
  %45 = load i32, ptr %18, align 4, !tbaa !28
  %46 = add nsw i32 %45, 1
  store i32 %46, ptr %18, align 4, !tbaa !28
  %47 = sext i32 %45 to i64
  %48 = getelementptr inbounds ptr, ptr %44, i64 %47
  store ptr %1, ptr %48, align 8, !tbaa !32
  br label %49

49:                                               ; preds = %6, %3, %Vec_PtrPush.exit
  ret void
}